target datalayout = "e-m:e-p270:32:32-p271:32:32-p272:64:64-i64:64-i128:128-f80:128-n8:16:32:64-S128"
target triple = "x86_64-pc-linux-gnu"

%struct.assoc_mgr_lock_t = type { i32, i32, i32, i32, i32, i32, i32 }
%struct.jobacctinfo = type { i32, i64, i32, i64, i32, i32, %struct.acct_gather_energy, double, double, i32, i32, i32, ptr, ptr, ptr, ptr, ptr, ptr, ptr, ptr, ptr, ptr, ptr, ptr, ptr, ptr, ptr, ptr, %struct.jobacct_id_t, i32, double, double, i64, i64 }
%struct.acct_gather_energy = type { i32, i64, i64, i32, i64, i64, i64 }
%struct.jobacct_id_t = type { i32, i32, ptr }
%struct.slurmdb_stats_t = type { double, i64, ptr, ptr, ptr, ptr, ptr, ptr, ptr, ptr, ptr, ptr, ptr, ptr, ptr, ptr, ptr, ptr }

@__const._jobacctinfo_2_stats_tres_usage.locks = private unnamed_addr constant %struct.assoc_mgr_lock_t { i32 0, i32 0, i32 0, i32 0, i32 1, i32 0, i32 0 }, align 4

; Function Attrs: nounwind uwtable
define internal void @_jobacctinfo_2_stats_tres_usage(ptr noundef %0, ptr noundef %1) #0 {
  %3 = alloca ptr, align 8
  %4 = alloca ptr, align 8
  %5 = alloca %struct.assoc_mgr_lock_t, align 4
  %6 = alloca i32, align 4
  store ptr %0, ptr %3, align 8
  store ptr %1, ptr %4, align 8
  call void @llvm.lifetime.start.p0(i64 28, ptr %5) #8
  call void @llvm.memcpy.p0.p0.i64(ptr align 4 %5, ptr align 4 @__const._jobacctinfo_2_stats_tres_usage.locks, i64 28, i1 false)
  call void @llvm.lifetime.start.p0(i64 4, ptr %6) #8
  store i32 2064, ptr %6, align 4
  call void @assoc_mgr_lock(ptr noundef %5)
  %7 = load ptr, ptr %4, align 8
  %8 = getelementptr inbounds nuw %struct.jobacctinfo, ptr %7, i32 0, i32 20
  %9 = load ptr, ptr %8, align 8
  %10 = load i32, ptr %6, align 4
  %11 = call ptr @assoc_mgr_make_tres_str_from_array(ptr noundef %9, i32 noundef %10, i1 noundef zeroext true)
  %12 = load ptr, ptr %3, align 8
  %13 = getelementptr inbounds nuw %struct.slurmdb_stats_t, ptr %12, i32 0, i32 2
  store ptr %11, ptr %13, align 8
  %14 = load ptr, ptr %3, align 8
  %15 = getelementptr inbounds nuw %struct.slurmdb_stats_t, ptr %14, i32 0, i32 2
  %16 = load ptr, ptr %15, align 8
  %17 = call ptr @xstrdup(ptr noundef %16)
  %18 = load ptr, ptr %3, align 8
  %19 = getelementptr inbounds nuw %struct.slurmdb_stats_t, ptr %18, i32 0, i32 9
  store ptr %17, ptr %19, align 8
  %20 = load ptr, ptr %4, align 8
  %21 = getelementptr inbounds nuw %struct.jobacctinfo, ptr %20, i32 0, i32 14
  %22 = load ptr, ptr %21, align 8
  %23 = load i32, ptr %6, align 4
  %24 = call ptr @assoc_mgr_make_tres_str_from_array(ptr noundef %22, i32 noundef %23, i1 noundef zeroext true)
  %25 = load ptr, ptr %3, align 8
  %26 = getelementptr inbounds nuw %struct.slurmdb_stats_t, ptr %25, i32 0, i32 3
  store ptr %24, ptr %26, align 8
  %27 = load ptr, ptr %4, align 8
  %28 = getelementptr inbounds nuw %struct.jobacctinfo, ptr %27, i32 0, i32 15
  %29 = load ptr, ptr %28, align 8
  %30 = load i32, ptr %6, align 4
  %31 = call ptr @assoc_mgr_make_tres_str_from_array(ptr noundef %29, i32 noundef %30, i1 noundef zeroext true)
  %32 = load ptr, ptr %3, align 8
  %33 = getelementptr inbounds nuw %struct.slurmdb_stats_t, ptr %32, i32 0, i32 4
  store ptr %31, ptr %33, align 8
  %34 = load ptr, ptr %4, align 8
  %35 = getelementptr inbounds nuw %struct.jobacctinfo, ptr %34, i32 0, i32 16
  %36 = load ptr, ptr %35, align 8
  %37 = load i32, ptr %6, align 4
  %38 = call ptr @assoc_mgr_make_tres_str_from_array(ptr noundef %36, i32 noundef %37, i1 noundef zeroext true)
  %39 = load ptr, ptr %3, align 8
  %40 = getelementptr inbounds nuw %struct.slurmdb_stats_t, ptr %39, i32 0, i32 5
  store ptr %38, ptr %40, align 8
  %41 = load ptr, ptr %4, align 8
  %42 = getelementptr inbounds nuw %struct.jobacctinfo, ptr %41, i32 0, i32 17
  %43 = load ptr, ptr %42, align 8
  %44 = load i32, ptr %6, align 4
  %45 = call ptr @assoc_mgr_make_tres_str_from_array(ptr noundef %43, i32 noundef %44, i1 noundef zeroext true)
  %46 = load ptr, ptr %3, align 8
  %47 = getelementptr inbounds nuw %struct.slurmdb_stats_t, ptr %46, i32 0, i32 6
  store ptr %45, ptr %47, align 8
  %48 = load ptr, ptr %4, align 8
  %49 = getelementptr inbounds nuw %struct.jobacctinfo, ptr %48, i32 0, i32 18
  %50 = load ptr, ptr %49, align 8
  %51 = load i32, ptr %6, align 4
  %52 = call ptr @assoc_mgr_make_tres_str_from_array(ptr noundef %50, i32 noundef %51, i1 noundef zeroext true)
  %53 = load ptr, ptr %3, align 8
  %54 = getelementptr inbounds nuw %struct.slurmdb_stats_t, ptr %53, i32 0, i32 7
  store ptr %52, ptr %54, align 8
  %55 = load ptr, ptr %4, align 8
  %56 = getelementptr inbounds nuw %struct.jobacctinfo, ptr %55, i32 0, i32 19
  %57 = load ptr, ptr %56, align 8
  %58 = load i32, ptr %6, align 4
  %59 = call ptr @assoc_mgr_make_tres_str_from_array(ptr noundef %57, i32 noundef %58, i1 noundef zeroext true)
  %60 = load ptr, ptr %3, align 8
  %61 = getelementptr inbounds nuw %struct.slurmdb_stats_t, ptr %60, i32 0, i32 8
  store ptr %59, ptr %61, align 8
  %62 = load ptr, ptr %4, align 8
  %63 = getelementptr inbounds nuw %struct.jobacctinfo, ptr %62, i32 0, i32 27
  %64 = load ptr, ptr %63, align 8
  %65 = load i32, ptr %6, align 4
  %66 = call ptr @assoc_mgr_make_tres_str_from_array(ptr noundef %64, i32 noundef %65, i1 noundef zeroext true)
  %67 = load ptr, ptr %3, align 8
  %68 = getelementptr inbounds nuw %struct.slurmdb_stats_t, ptr %67, i32 0, i32 10
  store ptr %66, ptr %68, align 8
  %69 = load ptr, ptr %3, align 8
  %70 = getelementptr inbounds nuw %struct.slurmdb_stats_t, ptr %69, i32 0, i32 10
  %71 = load ptr, ptr %70, align 8
  %72 = call ptr @xstrdup(ptr noundef %71)
  %73 = load ptr, ptr %3, align 8
  %74 = getelementptr inbounds nuw %struct.slurmdb_stats_t, ptr %73, i32 0, i32 17
  store ptr %72, ptr %74, align 8
  %75 = load ptr, ptr %4, align 8
  %76 = getelementptr inbounds nuw %struct.jobacctinfo, ptr %75, i32 0, i32 21
  %77 = load ptr, ptr %76, align 8
  %78 = load i32, ptr %6, align 4
  %79 = call ptr @assoc_mgr_make_tres_str_from_array(ptr noundef %77, i32 noundef %78, i1 noundef zeroext true)
  %80 = load ptr, ptr %3, align 8
  %81 = getelementptr inbounds nuw %struct.slurmdb_stats_t, ptr %80, i32 0, i32 11
  store ptr %79, ptr %81, align 8
  %82 = load ptr, ptr %4, align 8
  %83 = getelementptr inbounds nuw %struct.jobacctinfo, ptr %82, i32 0, i32 23
  %84 = load ptr, ptr %83, align 8
  %85 = load i32, ptr %6, align 4
  %86 = call ptr @assoc_mgr_make_tres_str_from_array(ptr noundef %84, i32 noundef %85, i1 noundef zeroext true)
  %87 = load ptr, ptr %3, align 8
  %88 = getelementptr inbounds nuw %struct.slurmdb_stats_t, ptr %87, i32 0, i32 13
  store ptr %86, ptr %88, align 8
  %89 = load ptr, ptr %4, align 8
  %90 = getelementptr inbounds nuw %struct.jobacctinfo, ptr %89, i32 0, i32 22
  %91 = load ptr, ptr %90, align 8
  %92 = load i32, ptr %6, align 4
  %93 = call ptr @assoc_mgr_make_tres_str_from_array(ptr noundef %91, i32 noundef %92, i1 noundef zeroext true)
  %94 = load ptr, ptr %3, align 8
  %95 = getelementptr inbounds nuw %struct.slurmdb_stats_t, ptr %94, i32 0, i32 12
  store ptr %93, ptr %95, align 8
  %96 = load ptr, ptr %4, align 8
  %97 = getelementptr inbounds nuw %struct.jobacctinfo, ptr %96, i32 0, i32 24
  %98 = load ptr, ptr %97, align 8
  %99 = load i32, ptr %6, align 4
  %100 = call ptr @assoc_mgr_make_tres_str_from_array(ptr noundef %98, i32 noundef %99, i1 noundef zeroext true)
  %101 = load ptr, ptr %3, align 8
  %102 = getelementptr inbounds nuw %struct.slurmdb_stats_t, ptr %101, i32 0, i32 14
  store ptr %100, ptr %102, align 8
  %103 = load ptr, ptr %4, align 8
  %104 = getelementptr inbounds nuw %struct.jobacctinfo, ptr %103, i32 0, i32 25
  %105 = load ptr, ptr %104, align 8
  %106 = load i32, ptr %6, align 4
  %107 = call ptr @assoc_mgr_make_tres_str_from_array(ptr noundef %105, i32 noundef %106, i1 noundef zeroext true)
  %108 = load ptr, ptr %3, align 8
  %109 = getelementptr inbounds nuw %struct.slurmdb_stats_t, ptr %108, i32 0, i32 15
  store ptr %107, ptr %109, align 8
  %110 = load ptr, ptr %4, align 8
  %111 = getelementptr inbounds nuw %struct.jobacctinfo, ptr %110, i32 0, i32 26
  %112 = load ptr, ptr %111, align 8
  %113 = load i32, ptr %6, align 4
  %114 = call ptr @assoc_mgr_make_tres_str_from_array(ptr noundef %112, i32 noundef %113, i1 noundef zeroext true)
  %115 = load ptr, ptr %3, align 8
  %116 = getelementptr inbounds nuw %struct.slurmdb_stats_t, ptr %115, i32 0, i32 16
  store ptr %114, ptr %116, align 8
  call void @assoc_mgr_unlock(ptr noundef %5)
  call void @llvm.lifetime.end.p0(i64 4, ptr %6) #8
  call void @llvm.lifetime.end.p0(i64 28, ptr %5) #8
  ret void
}

; Function Attrs: nounwind uwtable
define dso_local void @jobacctinfo_2_stats(ptr noundef %0, ptr noundef %1) #0 {
  %3 = alloca ptr, align 8
  %4 = alloca ptr, align 8
  store ptr %0, ptr %3, align 8
  store ptr %1, ptr %4, align 8
  %5 = load ptr, ptr %4, align 8
  %6 = getelementptr inbounds nuw %struct.jobacctinfo, ptr %5, i32 0, i32 5
  %7 = load i32, ptr %6, align 4
  %8 = uitofp i32 %7 to double
  %9 = load ptr, ptr %3, align 8
  %10 = getelementptr inbounds nuw %struct.slurmdb_stats_t, ptr %9, i32 0, i32 0
  store double %8, ptr %10, align 8
  %11 = load ptr, ptr %4, align 8
  %12 = getelementptr inbounds nuw %struct.jobacctinfo, ptr %11, i32 0, i32 6
  %13 = getelementptr inbounds nuw %struct.acct_gather_energy, ptr %12, i32 0, i32 2
  %14 = load i64, ptr %13, align 8
  %15 = icmp eq i64 %14, -2
  br i1 %15, label %16, label %19

16:                                               ; preds = %2
  %17 = load ptr, ptr %3, align 8
  %18 = getelementptr inbounds nuw %struct.slurmdb_stats_t, ptr %17, i32 0, i32 1
  store i64 -2, ptr %18, align 8
  br label %28

19:                                               ; preds = %2
  %20 = load ptr, ptr %4, align 8
  %21 = getelementptr inbounds nuw %struct.jobacctinfo, ptr %20, i32 0, i32 6
  %22 = getelementptr inbounds nuw %struct.acct_gather_energy, ptr %21, i32 0, i32 2
  %23 = load i64, ptr %22, align 8
  %24 = uitofp i64 %23 to double
  %25 = fptoui double %24 to i64
  %26 = load ptr, ptr %3, align 8
  %27 = getelementptr inbounds nuw %struct.slurmdb_stats_t, ptr %26, i32 0, i32 1
  store i64 %25, ptr %27, align 8
  br label %28

28:                                               ; preds = %19, %16
  %29 = load ptr, ptr %3, align 8
  %30 = load ptr, ptr %4, align 8
  call void @_jobacctinfo_2_stats_tres_usage(ptr noundef %29, ptr noundef %30)
  ret void
}