; Function Attrs: nounwind uwtable
define dso_local void @jobacctinfo_2_stats(ptr noundef writeonly captures(none) initializes((0, 144)) %0, ptr noundef readonly captures(none) %1) local_unnamed_addr #0 {
  %3 = alloca %struct.assoc_mgr_lock_t, align 4
  %4 = getelementptr inbounds nuw i8, ptr %1, i64 36
  %5 = load i32, ptr %4, align 4
  %6 = uitofp i32 %5 to double
  store double %6, ptr %0, align 8
  %7 = getelementptr inbounds nuw i8, ptr %1, i64 56
  %8 = load i64, ptr %7, align 8
  %9 = icmp eq i64 %8, -2
  %10 = uitofp i64 %8 to double
  %11 = fptoui double %10 to i64
  %.sink = select i1 %9, i64 -2, i64 %11
  %12 = getelementptr inbounds nuw i8, ptr %0, i64 8
  store i64 %.sink, ptr %12, align 8
  call void @llvm.lifetime.start.p0(i64 28, ptr nonnull %3) #10
  call void @llvm.memcpy.p0.p0.i64(ptr noundef nonnull align 4 dereferenceable(28) %3, ptr noundef nonnull align 4 dereferenceable(28) @__const._jobacctinfo_2_stats_tres_usage.locks, i64 28, i1 false)
  call void @assoc_mgr_lock(ptr noundef nonnull %3) #10
  %13 = getelementptr inbounds nuw i8, ptr %1, i64 192
  %14 = load ptr, ptr %13, align 8
  %15 = call ptr @assoc_mgr_make_tres_str_from_array(ptr noundef %14, i32 noundef 2064, i1 noundef zeroext true) #10
  %16 = getelementptr inbounds nuw i8, ptr %0, i64 16
  store ptr %15, ptr %16, align 8
  %17 = call ptr @xstrdup(ptr noundef %15) #10
  %18 = getelementptr inbounds nuw i8, ptr %0, i64 72
  store ptr %17, ptr %18, align 8
  %19 = getelementptr inbounds nuw i8, ptr %1, i64 144
  %20 = load ptr, ptr %19, align 8
  %21 = call ptr @assoc_mgr_make_tres_str_from_array(ptr noundef %20, i32 noundef 2064, i1 noundef zeroext true) #10
  %22 = getelementptr inbounds nuw i8, ptr %0, i64 24
  store ptr %21, ptr %22, align 8
  %23 = getelementptr inbounds nuw i8, ptr %1, i64 152
  %24 = load ptr, ptr %23, align 8
  %25 = call ptr @assoc_mgr_make_tres_str_from_array(ptr noundef %24, i32 noundef 2064, i1 noundef zeroext true) #10
  %26 = getelementptr inbounds nuw i8, ptr %0, i64 32
  store ptr %25, ptr %26, align 8
  %27 = getelementptr inbounds nuw i8, ptr %1, i64 160
  %28 = load ptr, ptr %27, align 8
  %29 = call ptr @assoc_mgr_make_tres_str_from_array(ptr noundef %28, i32 noundef 2064, i1 noundef zeroext true) #10
  %30 = getelementptr inbounds nuw i8, ptr %0, i64 40
  store ptr %29, ptr %30, align 8
  %31 = getelementptr inbounds nuw i8, ptr %1, i64 168
  %32 = load ptr, ptr %31, align 8
  %33 = call ptr @assoc_mgr_make_tres_str_from_array(ptr noundef %32, i32 noundef 2064, i1 noundef zeroext true) #10
  %34 = getelementptr inbounds nuw i8, ptr %0, i64 48
  store ptr %33, ptr %34, align 8
  %35 = getelementptr inbounds nuw i8, ptr %1, i64 176
  %36 = load ptr, ptr %35, align 8
  %37 = call ptr @assoc_mgr_make_tres_str_from_array(ptr noundef %36, i32 noundef 2064, i1 noundef zeroext true) #10
  %38 = getelementptr inbounds nuw i8, ptr %0, i64 56
  store ptr %37, ptr %38, align 8
  %39 = getelementptr inbounds nuw i8, ptr %1, i64 184
  %40 = load ptr, ptr %39, align 8
  %41 = call ptr @assoc_mgr_make_tres_str_from_array(ptr noundef %40, i32 noundef 2064, i1 noundef zeroext true) #10
  %42 = getelementptr inbounds nuw i8, ptr %0, i64 64
  store ptr %41, ptr %42, align 8
  %43 = getelementptr inbounds nuw i8, ptr %1, i64 248
  %44 = load ptr, ptr %43, align 8
  %45 = call ptr @assoc_mgr_make_tres_str_from_array(ptr noundef %44, i32 noundef 2064, i1 noundef zeroext true) #10
  %46 = getelementptr inbounds nuw i8, ptr %0, i64 80
  store ptr %45, ptr %46, align 8
  %47 = call ptr @xstrdup(ptr noundef %45) #10
  %48 = getelementptr inbounds nuw i8, ptr %0, i64 136
  store ptr %47, ptr %48, align 8
  %49 = getelementptr inbounds nuw i8, ptr %1, i64 200
  %50 = load ptr, ptr %49, align 8
  %51 = call ptr @assoc_mgr_make_tres_str_from_array(ptr noundef %50, i32 noundef 2064, i1 noundef zeroext true) #10
  %52 = getelementptr inbounds nuw i8, ptr %0, i64 88
  store ptr %51, ptr %52, align 8
  %53 = getelementptr inbounds nuw i8, ptr %1, i64 216
  %54 = load ptr, ptr %53, align 8
  %55 = call ptr @assoc_mgr_make_tres_str_from_array(ptr noundef %54, i32 noundef 2064, i1 noundef zeroext true) #10
  %56 = getelementptr inbounds nuw i8, ptr %0, i64 104
  store ptr %55, ptr %56, align 8
  %57 = getelementptr inbounds nuw i8, ptr %1, i64 208
  %58 = load ptr, ptr %57, align 8
  %59 = call ptr @assoc_mgr_make_tres_str_from_array(ptr noundef %58, i32 noundef 2064, i1 noundef zeroext true) #10
  %60 = getelementptr inbounds nuw i8, ptr %0, i64 96
  store ptr %59, ptr %60, align 8
  %61 = getelementptr inbounds nuw i8, ptr %1, i64 224
  %62 = load ptr, ptr %61, align 8
  %63 = call ptr @assoc_mgr_make_tres_str_from_array(ptr noundef %62, i32 noundef 2064, i1 noundef zeroext true) #10
  %64 = getelementptr inbounds nuw i8, ptr %0, i64 112
  store ptr %63, ptr %64, align 8
  %65 = getelementptr inbounds nuw i8, ptr %1, i64 232
  %66 = load ptr, ptr %65, align 8
  %67 = call ptr @assoc_mgr_make_tres_str_from_array(ptr noundef %66, i32 noundef 2064, i1 noundef zeroext true) #10
  %68 = getelementptr inbounds nuw i8, ptr %0, i64 120
  store ptr %67, ptr %68, align 8
  %69 = getelementptr inbounds nuw i8, ptr %1, i64 240
  %70 = load ptr, ptr %69, align 8
  %71 = call ptr @assoc_mgr_make_tres_str_from_array(ptr noundef %70, i32 noundef 2064, i1 noundef zeroext true) #10
  %72 = getelementptr inbounds nuw i8, ptr %0, i64 128
  store ptr %71, ptr %72, align 8
  call void @assoc_mgr_unlock(ptr noundef nonnull %3) #10
  call void @llvm.lifetime.end.p0(i64 28, ptr nonnull %3) #10
  ret void
}